; ModuleID = '1/2210.c'
source_filename = "1/2210.c"
target datalayout = "e-m:e-p270:32:32-p271:32:32-p272:64:64-i64:64-f80:128-n8:16:32:64-S128"
target triple = "x86_64-pc-linux-gnu"

@.str = private unnamed_addr constant [3 x i8] c"%d\00", align 1
@.str.1 = private unnamed_addr constant [4 x i8] c"%d\0A\00", align 1

; Function Attrs: noinline nounwind uwtable
define dso_local i32 @fenjie(i32 %0, i32 %1) #0 {
  %3 = alloca i32, align 4
  %4 = alloca i32, align 4
  %5 = alloca i32, align 4
  %6 = alloca i32, align 4
  %7 = alloca i32, align 4
  %8 = alloca i32, align 4
  store i32 %0, i32* %4, align 4
  store i32 %1, i32* %5, align 4
  store i32 0, i32* %7, align 4
  store i32 0, i32* %8, align 4
  %9 = load i32, i32* %4, align 4
  %10 = load i32, i32* %5, align 4
  %11 = icmp slt i32 %9, %10
  br i1 %11, label %12, label %13

12:                                               ; preds = %2
  store i32 0, i32* %3, align 4
  br label %65

13:                                               ; preds = %2
  %14 = load i32, i32* %4, align 4
  %15 = load i32, i32* %5, align 4
  %16 = icmp eq i32 %14, %15
  br i1 %16, label %17, label %18

17:                                               ; preds = %13
  store i32 1, i32* %3, align 4
  br label %65

18:                                               ; preds = %13
  store i32 2, i32* %6, align 4
  br label %19

19:                                               ; preds = %31, %18
  %20 = load i32, i32* %6, align 4
  %21 = load i32, i32* %4, align 4
  %22 = sub nsw i32 %21, 1
  %23 = icmp sle i32 %20, %22
  br i1 %23, label %24, label %34

24:                                               ; preds = %19
  %25 = load i32, i32* %4, align 4
  %26 = load i32, i32* %6, align 4
  %27 = srem i32 %25, %26
  %28 = icmp eq i32 %27, 0
  br i1 %28, label %29, label %30

29:                                               ; preds = %24
  store i32 1, i32* %7, align 4
  br label %30

30:                                               ; preds = %29, %24
  br label %31

31:                                               ; preds = %30
  %32 = load i32, i32* %6, align 4
  %33 = add nsw i32 %32, 1
  store i32 %33, i32* %6, align 4
  br label %19

34:                                               ; preds = %19
  %35 = load i32, i32* %7, align 4
  %36 = icmp ne i32 %35, 1
  br i1 %36, label %37, label %38

37:                                               ; preds = %34
  store i32 1, i32* %3, align 4
  br label %65

38:                                               ; preds = %34
  %39 = load i32, i32* %5, align 4
  store i32 %39, i32* %6, align 4
  br label %40

40:                                               ; preds = %58, %38
  %41 = load i32, i32* %6, align 4
  %42 = load i32, i32* %4, align 4
  %43 = icmp sle i32 %41, %42
  br i1 %43, label %44, label %61

44:                                               ; preds = %40
  %45 = load i32, i32* %4, align 4
  %46 = load i32, i32* %6, align 4
  %47 = srem i32 %45, %46
  %48 = icmp eq i32 %47, 0
  br i1 %48, label %49, label %57

49:                                               ; preds = %44
  %50 = load i32, i32* %4, align 4
  %51 = load i32, i32* %6, align 4
  %52 = sdiv i32 %50, %51
  %53 = load i32, i32* %6, align 4
  %54 = call i32 @fenjie(i32 %52, i32 %53)
  %55 = load i32, i32* %8, align 4
  %56 = add nsw i32 %55, %54
  store i32 %56, i32* %8, align 4
  br label %57

57:                                               ; preds = %49, %44
  br label %58

58:                                               ; preds = %57
  %59 = load i32, i32* %6, align 4
  %60 = add nsw i32 %59, 1
  store i32 %60, i32* %6, align 4
  br label %40

61:                                               ; preds = %40
  %62 = load i32, i32* %8, align 4
  %63 = add nsw i32 %62, 1
  store i32 %63, i32* %8, align 4
  %64 = load i32, i32* %8, align 4
  store i32 %64, i32* %3, align 4
  br label %65

65:                                               ; preds = %61, %37, %17, %12
  %66 = load i32, i32* %3, align 4
  ret i32 %66
}

; Function Attrs: noinline nounwind uwtable
define dso_local i32 @main() #0 {
  %1 = alloca i32, align 4
  %2 = alloca i32, align 4
  %3 = alloca [100 x i32], align 16
  %4 = alloca i32, align 4
  %5 = alloca i32, align 4
  store i32 0, i32* %1, align 4
  %6 = call i32 (i8*, ...) @__isoc99_scanf(i8* getelementptr inbounds ([3 x i8], [3 x i8]* @.str, i64 0, i64 0), i32* %2)
  store i32 1, i32* %4, align 4
  br label %7

7:                                                ; preds = %16, %0
  %8 = load i32, i32* %4, align 4
  %9 = load i32, i32* %2, align 4
  %10 = icmp sle i32 %8, %9
  br i1 %10, label %11, label %19

11:                                               ; preds = %7
  %12 = call i32 (i8*, ...) @__isoc99_scanf(i8* getelementptr inbounds ([3 x i8], [3 x i8]* @.str, i64 0, i64 0), i32* %5)
  %13 = load i32, i32* %5, align 4
  %14 = call i32 @fenjie(i32 %13, i32 2)
  %15 = call i32 (i8*, ...) @printf(i8* getelementptr inbounds ([4 x i8], [4 x i8]* @.str.1, i64 0, i64 0), i32 %14)
  br label %16

16:                                               ; preds = %11
  %17 = load i32, i32* %4, align 4
  %18 = add nsw i32 %17, 1
  store i32 %18, i32* %4, align 4
  br label %7

19:                                               ; preds = %7
  ret i32 0
}

declare dso_local i32 @__isoc99_scanf(i8*, ...) #1

declare dso_local i32 @printf(i8*, ...) #1


!llvm.module.flags = !{!0}
!llvm.ident = !{!1}

!0 = !{i32 1, !"wchar_size", i32 4}
!1 = !{!"clang version 10.0.0-4ubuntu1 "}
